; Function Attrs: nounwind uwtable
define void @Aig_ManOrderStart(ptr noundef captures(none) initializes((216, 236)) %0) local_unnamed_addr #0 {
  %2 = getelementptr i8, ptr %0, i64 32
  %.val21 = load ptr, ptr %2, align 8, !tbaa !3
  %3 = getelementptr i8, ptr %.val21, i64 4
  %.val21.val = load i32, ptr %3, align 4, !tbaa !21
  %4 = getelementptr inbounds nuw i8, ptr %0, i64 224
  %5 = tail call i32 @llvm.smax.i32(i32 %.val21.val, i32 2048)
  %spec.select = shl nuw i32 %5, 1
  store i32 %spec.select, ptr %4, align 8, !tbaa !23
  %6 = shl i32 %5, 2
  %7 = sext i32 %6 to i64
  %8 = shl nsw i64 %7, 2
  %9 = tail call noalias ptr @malloc(i64 noundef %8) #9
  %10 = getelementptr inbounds nuw i8, ptr %0, i64 216
  store ptr %9, ptr %10, align 8, !tbaa !24
  %11 = sext i32 %spec.select to i64
  %12 = shl nsw i64 %11, 3
  tail call void @llvm.memset.p0.i64(ptr noundef nonnull align 4 dereferenceable(1) %9, i8 -1, i64 %12, i1 false)
  %13 = getelementptr inbounds nuw i8, ptr %9, i64 4
  store i32 0, ptr %13, align 4, !tbaa !25
  store i32 0, ptr %9, align 4, !tbaa !25
  %14 = getelementptr inbounds nuw i8, ptr %0, i64 232
  store i32 0, ptr %14, align 8, !tbaa !26
  %15 = getelementptr inbounds nuw i8, ptr %0, i64 228
  store i32 0, ptr %15, align 4, !tbaa !27
  %16 = icmp sgt i32 %.val21.val, 0
  br i1 %16, label %.lr.ph, label %.critedge

.lr.ph:                                           ; preds = %1
  %17 = getelementptr inbounds nuw i8, ptr %0, i64 236
  br label %18

18:                                               ; preds = %.lr.ph, %73
  %.pre30.pre35 = phi ptr [ %.val21, %.lr.ph ], [ %.pre30.pre36, %73 ]
  %.pre3032 = phi ptr [ %.val21, %.lr.ph ], [ %.pre3033, %73 ]
  %19 = phi ptr [ %.val21, %.lr.ph ], [ %74, %73 ]
  %20 = phi i32 [ 0, %.lr.ph ], [ %75, %73 ]
  %.pre30.i = phi ptr [ %9, %.lr.ph ], [ %.pre30.i28, %73 ]
  %21 = phi ptr [ %9, %.lr.ph ], [ %76, %73 ]
  %indvars.iv = phi i64 [ 0, %.lr.ph ], [ %indvars.iv.next, %73 ]
  %22 = getelementptr i8, ptr %19, i64 8
  %.val22 = load ptr, ptr %22, align 8, !tbaa !28
  %23 = getelementptr inbounds nuw ptr, ptr %.val22, i64 %indvars.iv
  %24 = load ptr, ptr %23, align 8, !tbaa !29
  %25 = icmp eq ptr %24, null
  br i1 %25, label %73, label %26

26:                                               ; preds = %18
  %27 = getelementptr i8, ptr %24, i64 24
  %.val23 = load i64, ptr %27, align 8
  %28 = trunc i64 %.val23 to i32
  %29 = and i32 %28, 7
  %30 = add nsw i32 %29, -7
  %narrow.i = icmp ult i32 %30, -2
  br i1 %narrow.i, label %73, label %31

31:                                               ; preds = %26
  %32 = getelementptr inbounds nuw i8, ptr %24, i64 36
  %33 = load i32, ptr %32, align 4, !tbaa !30
  %34 = load i32, ptr %4, align 8, !tbaa !23
  %.not.i = icmp slt i32 %33, %34
  %.pre31.i = shl nsw i32 %33, 1
  br i1 %.not.i, label %Aig_ObjOrderInsert.exit, label %35

35:                                               ; preds = %31
  %.not29.i = icmp eq ptr %21, null
  %36 = shl nsw i32 %33, 2
  %37 = sext i32 %36 to i64
  %38 = shl nsw i64 %37, 2
  br i1 %.not29.i, label %41, label %39

39:                                               ; preds = %35
  %40 = tail call ptr @realloc(ptr noundef nonnull %21, i64 noundef %38) #10
  %.pre.i = load i32, ptr %4, align 8, !tbaa !23
  %.pre.pre = load i32, ptr %14, align 8, !tbaa !26
  %.pre30.pre.pre = load ptr, ptr %2, align 8, !tbaa !3
  br label %43

41:                                               ; preds = %35
  %42 = tail call noalias ptr @malloc(i64 noundef %38) #9
  br label %43

43:                                               ; preds = %41, %39
  %.pre30.pre = phi ptr [ %.pre30.pre.pre, %39 ], [ %.pre30.pre35, %41 ]
  %.pre = phi i32 [ %.pre.pre, %39 ], [ %20, %41 ]
  %44 = phi i32 [ %.pre.i, %39 ], [ %34, %41 ]
  %45 = phi ptr [ %40, %39 ], [ %42, %41 ]
  store ptr %45, ptr %10, align 8, !tbaa !24
  %46 = shl nsw i32 %44, 1
  %47 = sext i32 %46 to i64
  %48 = getelementptr inbounds i32, ptr %45, i64 %47
  %49 = sub nsw i32 %.pre31.i, %44
  %50 = sext i32 %49 to i64
  %51 = shl nsw i64 %50, 3
  tail call void @llvm.memset.p0.i64(ptr align 4 %48, i8 -1, i64 %51, i1 false)
  store i32 %.pre31.i, ptr %4, align 8, !tbaa !23
  br label %Aig_ObjOrderInsert.exit

Aig_ObjOrderInsert.exit:                          ; preds = %31, %43
  %.pre30.pre37 = phi ptr [ %.pre30.pre, %43 ], [ %.pre30.pre35, %31 ]
  %.pre30 = phi ptr [ %.pre30.pre, %43 ], [ %.pre3032, %31 ]
  %52 = phi i32 [ %.pre, %43 ], [ %20, %31 ]
  %.pre30.i29 = phi ptr [ %45, %43 ], [ %.pre30.i, %31 ]
  %53 = shl nsw i32 %52, 1
  %54 = sext i32 %53 to i64
  %55 = getelementptr inbounds i32, ptr %.pre30.i29, i64 %54
  %56 = load i32, ptr %55, align 4, !tbaa !25
  %57 = sext i32 %.pre31.i to i64
  %58 = getelementptr inbounds i32, ptr %.pre30.i29, i64 %57
  store i32 %56, ptr %58, align 4, !tbaa !25
  %59 = shl nsw i32 %56, 1
  %60 = or disjoint i32 %59, 1
  %61 = sext i32 %60 to i64
  %62 = getelementptr inbounds i32, ptr %.pre30.i29, i64 %61
  store i32 %33, ptr %62, align 4, !tbaa !25
  %63 = load i32, ptr %14, align 8, !tbaa !26
  %64 = shl nsw i32 %63, 1
  %65 = sext i32 %64 to i64
  %66 = getelementptr inbounds i32, ptr %.pre30.i29, i64 %65
  store i32 %33, ptr %66, align 4, !tbaa !25
  %67 = load i32, ptr %14, align 8, !tbaa !26
  %68 = or disjoint i32 %.pre31.i, 1
  %69 = sext i32 %68 to i64
  %70 = getelementptr inbounds i32, ptr %.pre30.i29, i64 %69
  store i32 %67, ptr %70, align 4, !tbaa !25
  %71 = load i32, ptr %17, align 4, !tbaa !31
  %72 = add nsw i32 %71, 1
  store i32 %72, ptr %17, align 4, !tbaa !31
  br label %73

73:                                               ; preds = %Aig_ObjOrderInsert.exit, %26, %18
  %.pre30.pre36 = phi ptr [ %.pre30.pre37, %Aig_ObjOrderInsert.exit ], [ %.pre30.pre35, %26 ], [ %.pre30.pre35, %18 ]
  %.pre3033 = phi ptr [ %.pre30, %Aig_ObjOrderInsert.exit ], [ %.pre3032, %26 ], [ %.pre3032, %18 ]
  %74 = phi ptr [ %.pre30, %Aig_ObjOrderInsert.exit ], [ %19, %26 ], [ %19, %18 ]
  %75 = phi i32 [ %67, %Aig_ObjOrderInsert.exit ], [ %20, %26 ], [ %20, %18 ]
  %.pre30.i28 = phi ptr [ %.pre30.i29, %Aig_ObjOrderInsert.exit ], [ %.pre30.i, %26 ], [ %.pre30.i, %18 ]
  %76 = phi ptr [ %.pre30.i29, %Aig_ObjOrderInsert.exit ], [ %21, %26 ], [ %21, %18 ]
  %indvars.iv.next = add nuw nsw i64 %indvars.iv, 1
  %77 = getelementptr i8, ptr %74, i64 4
  %.val = load i32, ptr %77, align 4, !tbaa !21
  %78 = sext i32 %.val to i64
  %79 = icmp slt i64 %indvars.iv.next, %78
  br i1 %79, label %18, label %.critedge, !llvm.loop !32

.critedge:                                        ; preds = %73, %1
  ret void
}